target datalayout = "e-m:e-p270:32:32-p271:32:32-p272:64:64-i64:64-i128:128-f80:128-n8:16:32:64-S128"
target triple = "x86_64-pc-linux-gnu"

%struct.NSVGNamedColor = type { ptr, i32 }

@.str.64 = private unnamed_addr constant [11 x i8] c"#%2x%2x%2x\00", align 1
@.str.65 = private unnamed_addr constant [11 x i8] c"#%1x%1x%1x\00", align 1

; Function Attrs: nounwind uwtable
define internal i32 @nsvg__parseColorName(ptr noundef %0) #0 {
  %2 = alloca i32, align 4
  %3 = alloca ptr, align 8
  %4 = alloca i32, align 4
  %5 = alloca i32, align 4
  %6 = alloca i32, align 4
  store ptr %0, ptr %3, align 8, !tbaa !4
  call void @llvm.lifetime.start.p0(i64 4, ptr %4) #11
  call void @llvm.lifetime.start.p0(i64 4, ptr %5) #11
  store i32 10, ptr %5, align 4, !tbaa !10
  store i32 0, ptr %4, align 4, !tbaa !10
  br label %7

7:                                                ; preds = %27, %1
  %8 = load i32, ptr %4, align 4, !tbaa !10
  %9 = load i32, ptr %5, align 4, !tbaa !10
  %10 = icmp slt i32 %8, %9
  br i1 %10, label %11, label %30

11:                                               ; preds = %7
  %12 = load i32, ptr %4, align 4, !tbaa !10
  %13 = sext i32 %12 to i64
  %14 = getelementptr inbounds [10 x %struct.NSVGNamedColor], ptr @nsvg__colors, i64 0, i64 %13
  %15 = getelementptr inbounds nuw %struct.NSVGNamedColor, ptr %14, i32 0, i32 0
  %16 = load ptr, ptr %15, align 16, !tbaa !256
  %17 = load ptr, ptr %3, align 8, !tbaa !4
  %18 = call i32 @strcmp(ptr noundef %16, ptr noundef %17) #13
  %19 = icmp eq i32 %18, 0
  br i1 %19, label %20, label %26

20:                                               ; preds = %11
  %21 = load i32, ptr %4, align 4, !tbaa !10
  %22 = sext i32 %21 to i64
  %23 = getelementptr inbounds [10 x %struct.NSVGNamedColor], ptr @nsvg__colors, i64 0, i64 %22
  %24 = getelementptr inbounds nuw %struct.NSVGNamedColor, ptr %23, i32 0, i32 1
  %25 = load i32, ptr %24, align 8, !tbaa !258
  store i32 %25, ptr %2, align 4
  store i32 1, ptr %6, align 4
  br label %31

26:                                               ; preds = %11
  br label %27

27:                                               ; preds = %26
  %28 = load i32, ptr %4, align 4, !tbaa !10
  %29 = add nsw i32 %28, 1
  store i32 %29, ptr %4, align 4, !tbaa !10
  br label %7, !llvm.loop !259

30:                                               ; preds = %7
  store i32 8421504, ptr %2, align 4
  store i32 1, ptr %6, align 4
  br label %31

31:                                               ; preds = %30, %20
  call void @llvm.lifetime.end.p0(i64 4, ptr %5) #11
  call void @llvm.lifetime.end.p0(i64 4, ptr %4) #11
  %32 = load i32, ptr %2, align 4
  ret i32 %32
}

; Function Attrs: nounwind uwtable
define internal i32 @nsvg__parseColorHex(ptr noundef %0) #0 {
  %2 = alloca i32, align 4
  %3 = alloca ptr, align 8
  %4 = alloca i32, align 4
  %5 = alloca i32, align 4
  %6 = alloca i32, align 4
  %7 = alloca i32, align 4
  store ptr %0, ptr %3, align 8, !tbaa !4
  call void @llvm.lifetime.start.p0(i64 4, ptr %4) #11
  store i32 0, ptr %4, align 4, !tbaa !10
  call void @llvm.lifetime.start.p0(i64 4, ptr %5) #11
  store i32 0, ptr %5, align 4, !tbaa !10
  call void @llvm.lifetime.start.p0(i64 4, ptr %6) #11
  store i32 0, ptr %6, align 4, !tbaa !10
  %8 = load ptr, ptr %3, align 8, !tbaa !4
  %9 = call i32 (ptr, ptr, ...) @__isoc99_sscanf(ptr noundef %8, ptr noundef @.str.64, ptr noundef %4, ptr noundef %5, ptr noundef %6) #11
  %10 = icmp eq i32 %9, 3
  br i1 %10, label %11, label %19

11:                                               ; preds = %1
  %12 = load i32, ptr %4, align 4, !tbaa !10
  %13 = load i32, ptr %5, align 4, !tbaa !10
  %14 = shl i32 %13, 8
  %15 = or i32 %12, %14
  %16 = load i32, ptr %6, align 4, !tbaa !10
  %17 = shl i32 %16, 16
  %18 = or i32 %15, %17
  store i32 %18, ptr %2, align 4
  store i32 1, ptr %7, align 4
  br label %35

19:                                               ; preds = %1
  %20 = load ptr, ptr %3, align 8, !tbaa !4
  %21 = call i32 (ptr, ptr, ...) @__isoc99_sscanf(ptr noundef %20, ptr noundef @.str.65, ptr noundef %4, ptr noundef %5, ptr noundef %6) #11
  %22 = icmp eq i32 %21, 3
  br i1 %22, label %23, label %34

23:                                               ; preds = %19
  %24 = load i32, ptr %4, align 4, !tbaa !10
  %25 = mul i32 %24, 17
  %26 = load i32, ptr %5, align 4, !tbaa !10
  %27 = mul i32 %26, 17
  %28 = shl i32 %27, 8
  %29 = or i32 %25, %28
  %30 = load i32, ptr %6, align 4, !tbaa !10
  %31 = mul i32 %30, 17
  %32 = shl i32 %31, 16
  %33 = or i32 %29, %32
  store i32 %33, ptr %2, align 4
  store i32 1, ptr %7, align 4
  br label %35

34:                                               ; preds = %19
  store i32 8421504, ptr %2, align 4
  store i32 1, ptr %7, align 4
  br label %35

35:                                               ; preds = %34, %23, %11
  call void @llvm.lifetime.end.p0(i64 4, ptr %6) #11
  call void @llvm.lifetime.end.p0(i64 4, ptr %5) #11
  call void @llvm.lifetime.end.p0(i64 4, ptr %4) #11
  %36 = load i32, ptr %2, align 4
  ret i32 %36
}

; Function Attrs: nounwind uwtable
define internal i32 @nsvg__parseColor(ptr noundef %0) #0 {
  %2 = alloca i32, align 4
  %3 = alloca ptr, align 8
  %4 = alloca i64, align 8
  %5 = alloca i32, align 4
  store ptr %0, ptr %3, align 8, !tbaa !4
  call void @llvm.lifetime.start.p0(i64 8, ptr %4) #11
  store i64 0, ptr %4, align 8, !tbaa !91
  br label %6

6:                                                ; preds = %11, %1
  %7 = load ptr, ptr %3, align 8, !tbaa !4
  %8 = load i8, ptr %7, align 1, !tbaa !12
  %9 = sext i8 %8 to i32
  %10 = icmp eq i32 %9, 32
  br i1 %10, label %11, label %14

11:                                               ; preds = %6
  %12 = load ptr, ptr %3, align 8, !tbaa !4
  %13 = getelementptr inbounds nuw i8, ptr %12, i32 1
  store ptr %13, ptr %3, align 8, !tbaa !4
  br label %6, !llvm.loop !244

14:                                               ; preds = %6
  %15 = load ptr, ptr %3, align 8, !tbaa !4
  %16 = call i64 @strlen(ptr noundef %15) #13
  store i64 %16, ptr %4, align 8, !tbaa !91
  %17 = load i64, ptr %4, align 8, !tbaa !91
  %18 = icmp uge i64 %17, 1
  br i1 %18, label %19, label %27

19:                                               ; preds = %14
  %20 = load ptr, ptr %3, align 8, !tbaa !4
  %21 = load i8, ptr %20, align 1, !tbaa !12
  %22 = sext i8 %21 to i32
  %23 = icmp eq i32 %22, 35
  br i1 %23, label %24, label %27

24:                                               ; preds = %19
  %25 = load ptr, ptr %3, align 8, !tbaa !4
  %26 = call i32 @nsvg__parseColorHex(ptr noundef %25)
  store i32 %26, ptr %2, align 4
  store i32 1, ptr %5, align 4
  br label %61

27:                                               ; preds = %19, %14
  %28 = load i64, ptr %4, align 8, !tbaa !91
  %29 = icmp uge i64 %28, 4
  br i1 %29, label %30, label %57

30:                                               ; preds = %27
  %31 = load ptr, ptr %3, align 8, !tbaa !4
  %32 = getelementptr inbounds i8, ptr %31, i64 0
  %33 = load i8, ptr %32, align 1, !tbaa !12
  %34 = sext i8 %33 to i32
  %35 = icmp eq i32 %34, 114
  br i1 %35, label %36, label %57

36:                                               ; preds = %30
  %37 = load ptr, ptr %3, align 8, !tbaa !4
  %38 = getelementptr inbounds i8, ptr %37, i64 1
  %39 = load i8, ptr %38, align 1, !tbaa !12
  %40 = sext i8 %39 to i32
  %41 = icmp eq i32 %40, 103
  br i1 %41, label %42, label %57

42:                                               ; preds = %36
  %43 = load ptr, ptr %3, align 8, !tbaa !4
  %44 = getelementptr inbounds i8, ptr %43, i64 2
  %45 = load i8, ptr %44, align 1, !tbaa !12
  %46 = sext i8 %45 to i32
  %47 = icmp eq i32 %46, 98
  br i1 %47, label %48, label %57

48:                                               ; preds = %42
  %49 = load ptr, ptr %3, align 8, !tbaa !4
  %50 = getelementptr inbounds i8, ptr %49, i64 3
  %51 = load i8, ptr %50, align 1, !tbaa !12
  %52 = sext i8 %51 to i32
  %53 = icmp eq i32 %52, 40
  br i1 %53, label %54, label %57

54:                                               ; preds = %48
  %55 = load ptr, ptr %3, align 8, !tbaa !4
  %56 = call i32 @nsvg__parseColorRGB(ptr noundef %55)
  store i32 %56, ptr %2, align 4
  store i32 1, ptr %5, align 4
  br label %61

57:                                               ; preds = %48, %42, %36, %30, %27
  br label %58

58:                                               ; preds = %57
  %59 = load ptr, ptr %3, align 8, !tbaa !4
  %60 = call i32 @nsvg__parseColorName(ptr noundef %59)
  store i32 %60, ptr %2, align 4
  store i32 1, ptr %5, align 4
  br label %61

61:                                               ; preds = %58, %54, %24
  call void @llvm.lifetime.end.p0(i64 8, ptr %4) #11
  %62 = load i32, ptr %2, align 4
  ret i32 %62
}