; Function Attrs: nofree nounwind uwtable
define internal fastcc i32 @nsvg__parseColor(ptr noundef %0) unnamed_addr #15 {
  %2 = alloca i32, align 4
  %3 = alloca i32, align 4
  %4 = alloca i32, align 4
  br label %5

5:                                                ; preds = %5, %1
  %.0 = phi ptr [ %0, %1 ], [ %8, %5 ]
  %6 = load i8, ptr %.0, align 1, !tbaa !4
  %7 = icmp eq i8 %6, 32
  %8 = getelementptr inbounds nuw i8, ptr %.0, i64 1
  br i1 %7, label %5, label %9, !llvm.loop !241

9:                                                ; preds = %5
  %10 = tail call i64 @strlen(ptr noundef nonnull dereferenceable(1) %.0) #32
  %.not = icmp ne i64 %10, 0
  %11 = icmp eq i8 %6, 35
  %or.cond = and i1 %11, %.not
  br i1 %or.cond, label %12, label %35

12:                                               ; preds = %9
  call void @llvm.lifetime.start.p0(i64 4, ptr nonnull %2) #31
  store i32 0, ptr %2, align 4, !tbaa !88
  call void @llvm.lifetime.start.p0(i64 4, ptr nonnull %3) #31
  store i32 0, ptr %3, align 4, !tbaa !88
  call void @llvm.lifetime.start.p0(i64 4, ptr nonnull %4) #31
  store i32 0, ptr %4, align 4, !tbaa !88
  %13 = call i32 (ptr, ptr, ...) @__isoc99_sscanf(ptr noundef nonnull readonly %.0, ptr noundef nonnull @.str.64, ptr noundef nonnull %2, ptr noundef nonnull %3, ptr noundef nonnull %4) #31
  %14 = icmp eq i32 %13, 3
  br i1 %14, label %15, label %23

15:                                               ; preds = %12
  %16 = load i32, ptr %2, align 4, !tbaa !88
  %17 = load i32, ptr %3, align 4, !tbaa !88
  %18 = shl i32 %17, 8
  %19 = or i32 %18, %16
  %20 = load i32, ptr %4, align 4, !tbaa !88
  %21 = shl i32 %20, 16
  %22 = or i32 %19, %21
  br label %nsvg__parseColorHex.exit

23:                                               ; preds = %12
  %24 = call i32 (ptr, ptr, ...) @__isoc99_sscanf(ptr noundef nonnull readonly %.0, ptr noundef nonnull @.str.65, ptr noundef nonnull %2, ptr noundef nonnull %3, ptr noundef nonnull %4) #31
  %25 = icmp eq i32 %24, 3
  br i1 %25, label %26, label %nsvg__parseColorHex.exit

26:                                               ; preds = %23
  %27 = load i32, ptr %2, align 4, !tbaa !88
  %28 = mul i32 %27, 17
  %29 = load i32, ptr %3, align 4, !tbaa !88
  %30 = mul i32 %29, 4352
  %31 = or i32 %30, %28
  %32 = load i32, ptr %4, align 4, !tbaa !88
  %33 = mul i32 %32, 1114112
  %34 = or i32 %31, %33
  br label %nsvg__parseColorHex.exit

nsvg__parseColorHex.exit:                         ; preds = %15, %23, %26
  %.0.i = phi i32 [ %22, %15 ], [ %34, %26 ], [ 8421504, %23 ]
  call void @llvm.lifetime.end.p0(i64 4, ptr nonnull %4) #31
  call void @llvm.lifetime.end.p0(i64 4, ptr nonnull %3) #31
  call void @llvm.lifetime.end.p0(i64 4, ptr nonnull %2) #31
  br label %nsvg__parseColorName.exit

35:                                               ; preds = %9
  %36 = icmp ugt i64 %10, 3
  %37 = icmp eq i8 %6, 114
  %or.cond16 = and i1 %37, %36
  br i1 %or.cond16, label %38, label %.preheader

38:                                               ; preds = %35
  %39 = load i8, ptr %8, align 1, !tbaa !4
  %40 = icmp eq i8 %39, 103
  br i1 %40, label %41, label %.preheader

41:                                               ; preds = %38
  %42 = getelementptr inbounds nuw i8, ptr %.0, i64 2
  %43 = load i8, ptr %42, align 1, !tbaa !4
  %44 = icmp eq i8 %43, 98
  br i1 %44, label %45, label %.preheader

45:                                               ; preds = %41
  %46 = getelementptr inbounds nuw i8, ptr %.0, i64 3
  %47 = load i8, ptr %46, align 1, !tbaa !4
  %48 = icmp eq i8 %47, 40
  br i1 %48, label %49, label %.preheader

.preheader:                                       ; preds = %35, %38, %41, %45
  br label %52

49:                                               ; preds = %45
  %50 = tail call fastcc i32 @nsvg__parseColorRGB(ptr noundef nonnull %.0)
  br label %nsvg__parseColorName.exit

51:                                               ; preds = %52
  %indvars.iv.next.i = add nuw nsw i64 %indvars.iv.i, 1
  %exitcond.not.i = icmp eq i64 %indvars.iv.next.i, 10
  br i1 %exitcond.not.i, label %nsvg__parseColorName.exit, label %52, !llvm.loop !242

52:                                               ; preds = %.preheader, %51
  %indvars.iv.i = phi i64 [ %indvars.iv.next.i, %51 ], [ 0, %.preheader ]
  %53 = getelementptr inbounds nuw [10 x %struct.NSVGNamedColor], ptr @nsvg__colors, i64 0, i64 %indvars.iv.i
  %54 = load ptr, ptr %53, align 16, !tbaa !243
  %55 = tail call i32 @strcmp(ptr noundef nonnull dereferenceable(1) %54, ptr noundef nonnull readonly dereferenceable(1) %.0) #32
  %56 = icmp eq i32 %55, 0
  br i1 %56, label %57, label %51

57:                                               ; preds = %52
  %58 = getelementptr inbounds nuw i8, ptr %53, i64 8
  %59 = load i32, ptr %58, align 8, !tbaa !245
  br label %nsvg__parseColorName.exit

nsvg__parseColorName.exit:                        ; preds = %51, %57, %49, %nsvg__parseColorHex.exit
  %.013 = phi i32 [ %.0.i, %nsvg__parseColorHex.exit ], [ %50, %49 ], [ %59, %57 ], [ 8421504, %51 ]
  ret i32 %.013
}